target datalayout = "e-m:e-p270:32:32-p271:32:32-p272:64:64-i64:64-i128:128-f80:128-n8:16:32:64-S128"
target triple = "x86_64-pc-linux-gnu"

%"class.Ipopt::SmartPtr" = type { ptr }
%"class.Ipopt::CompoundVector" = type <{ %"class.Ipopt::Vector.base", [3 x i8], %"class.std::vector.0", %"class.std::vector.5", ptr, i8, [7 x i8] }>
%"class.Ipopt::Vector.base" = type <{ %"class.Ipopt::TaggedObject", %"class.Ipopt::SmartPtr", %"class.Ipopt::CachedResults", i32, [4 x i8], double, i32, [4 x i8], double, i32, [4 x i8], double, i32, [4 x i8], double, i32, [4 x i8], double, i32, [4 x i8], double, i32, [4 x i8], double, i32, i8 }>
%"class.Ipopt::TaggedObject" = type { %"class.Ipopt::ReferencedObject.base", %"class.Ipopt::Subject", i32, i32 }
%"class.Ipopt::ReferencedObject.base" = type <{ ptr, i32 }>
%"class.Ipopt::Subject" = type { ptr, %"class.std::vector" }
%"class.std::vector" = type { %"struct.std::_Vector_base" }
%"struct.std::_Vector_base" = type { %"struct.std::_Vector_base<Ipopt::Observer *, std::allocator<Ipopt::Observer *>>::_Vector_impl" }
%"struct.std::_Vector_base<Ipopt::Observer *, std::allocator<Ipopt::Observer *>>::_Vector_impl" = type { %"struct.std::_Vector_base<Ipopt::Observer *, std::allocator<Ipopt::Observer *>>::_Vector_impl_data" }
%"struct.std::_Vector_base<Ipopt::Observer *, std::allocator<Ipopt::Observer *>>::_Vector_impl_data" = type { ptr, ptr, ptr }
%"class.Ipopt::CachedResults" = type { ptr, i32, ptr }
%"class.std::vector.0" = type { %"struct.std::_Vector_base.1" }
%"struct.std::_Vector_base.1" = type { %"struct.std::_Vector_base<Ipopt::SmartPtr<Ipopt::Vector>, std::allocator<Ipopt::SmartPtr<Ipopt::Vector>>>::_Vector_impl" }
%"struct.std::_Vector_base<Ipopt::SmartPtr<Ipopt::Vector>, std::allocator<Ipopt::SmartPtr<Ipopt::Vector>>>::_Vector_impl" = type { %"struct.std::_Vector_base<Ipopt::SmartPtr<Ipopt::Vector>, std::allocator<Ipopt::SmartPtr<Ipopt::Vector>>>::_Vector_impl_data" }
%"struct.std::_Vector_base<Ipopt::SmartPtr<Ipopt::Vector>, std::allocator<Ipopt::SmartPtr<Ipopt::Vector>>>::_Vector_impl_data" = type { ptr, ptr, ptr }
%"class.std::vector.5" = type { %"struct.std::_Vector_base.6" }
%"struct.std::_Vector_base.6" = type { %"struct.std::_Vector_base<Ipopt::SmartPtr<const Ipopt::Vector>, std::allocator<Ipopt::SmartPtr<const Ipopt::Vector>>>::_Vector_impl" }
%"struct.std::_Vector_base<Ipopt::SmartPtr<const Ipopt::Vector>, std::allocator<Ipopt::SmartPtr<const Ipopt::Vector>>>::_Vector_impl" = type { %"struct.std::_Vector_base<Ipopt::SmartPtr<const Ipopt::Vector>, std::allocator<Ipopt::SmartPtr<const Ipopt::Vector>>>::_Vector_impl_data" }
%"struct.std::_Vector_base<Ipopt::SmartPtr<const Ipopt::Vector>, std::allocator<Ipopt::SmartPtr<const Ipopt::Vector>>>::_Vector_impl_data" = type { ptr, ptr, ptr }
%"class.Ipopt::CompoundVectorSpace" = type { %"class.Ipopt::VectorSpace", i32, %"class.std::vector.10" }
%"class.Ipopt::VectorSpace" = type { %"class.Ipopt::ReferencedObject.base", i32 }
%"class.std::vector.10" = type { %"struct.std::_Vector_base.11" }
%"struct.std::_Vector_base.11" = type { %"struct.std::_Vector_base<Ipopt::SmartPtr<const Ipopt::VectorSpace>, std::allocator<Ipopt::SmartPtr<const Ipopt::VectorSpace>>>::_Vector_impl" }
%"struct.std::_Vector_base<Ipopt::SmartPtr<const Ipopt::VectorSpace>, std::allocator<Ipopt::SmartPtr<const Ipopt::VectorSpace>>>::_Vector_impl" = type { %"struct.std::_Vector_base<Ipopt::SmartPtr<const Ipopt::VectorSpace>, std::allocator<Ipopt::SmartPtr<const Ipopt::VectorSpace>>>::_Vector_impl_data" }
%"struct.std::_Vector_base<Ipopt::SmartPtr<const Ipopt::VectorSpace>, std::allocator<Ipopt::SmartPtr<const Ipopt::VectorSpace>>>::_Vector_impl_data" = type { ptr, ptr, ptr }
%"class.Ipopt::SmartPtr.15" = type { ptr }
%"class.Ipopt::SmartPtr.16" = type { ptr }

; Function Attrs: mustprogress nounwind uwtable
define linkonce_odr noundef i32 @_ZNK5Ipopt19CompoundVectorSpace11NCompSpacesEv(ptr noundef nonnull align 8 dereferenceable(48) %0) #2 comdat align 2 {
  %2 = alloca ptr, align 8
  store ptr %0, ptr %2, align 8, !tbaa !8
  %3 = load ptr, ptr %2, align 8
  %4 = getelementptr inbounds nuw %"class.Ipopt::CompoundVectorSpace", ptr %3, i32 0, i32 1
  %5 = load i32, ptr %4, align 8, !tbaa !59
  ret i32 %5
}

; Function Attrs: mustprogress nounwind uwtable
define linkonce_odr noundef zeroext i1 @_ZN5Ipopt6IsNullIKNS_6VectorEEEbRKNS_8SmartPtrIT_EE(ptr noundef nonnull align 8 dereferenceable(8) %0) #2 comdat {
  %2 = alloca ptr, align 8
  store ptr %0, ptr %2, align 8, !tbaa !89
  %3 = load ptr, ptr %2, align 8, !tbaa !89
  %4 = getelementptr inbounds nuw %"class.Ipopt::SmartPtr.16", ptr %3, i32 0, i32 0
  %5 = load ptr, ptr %4, align 8, !tbaa !98
  %6 = icmp eq ptr %5, null
  ret i1 %6
}

; Function Attrs: mustprogress nounwind uwtable
define linkonce_odr noundef nonnull align 8 dereferenceable(8) ptr @_ZNSt6vectorIN5Ipopt8SmartPtrIKNS0_6VectorEEESaIS4_EEixEm(ptr noundef nonnull align 8 dereferenceable(24) %0, i64 noundef %1) #2 comdat align 2 {
  %3 = alloca ptr, align 8
  %4 = alloca i64, align 8
  store ptr %0, ptr %3, align 8, !tbaa !77
  store i64 %1, ptr %4, align 8, !tbaa !71
  %5 = load ptr, ptr %3, align 8
  %6 = getelementptr inbounds nuw %"struct.std::_Vector_base.6", ptr %5, i32 0, i32 0
  %7 = getelementptr inbounds nuw %"struct.std::_Vector_base<Ipopt::SmartPtr<const Ipopt::Vector>, std::allocator<Ipopt::SmartPtr<const Ipopt::Vector>>>::_Vector_impl_data", ptr %6, i32 0, i32 0
  %8 = load ptr, ptr %7, align 8, !tbaa !86
  %9 = load i64, ptr %4, align 8, !tbaa !71
  %10 = getelementptr inbounds nuw %"class.Ipopt::SmartPtr.16", ptr %8, i64 %9
  ret ptr %10
}

; Function Attrs: mustprogress nounwind uwtable
define linkonce_odr noundef zeroext i1 @_ZN5Ipopt6IsNullINS_6VectorEEEbRKNS_8SmartPtrIT_EE(ptr noundef nonnull align 8 dereferenceable(8) %0) #2 comdat {
  %2 = alloca ptr, align 8
  store ptr %0, ptr %2, align 8, !tbaa !84
  %3 = load ptr, ptr %2, align 8, !tbaa !84
  %4 = getelementptr inbounds nuw %"class.Ipopt::SmartPtr.15", ptr %3, i32 0, i32 0
  %5 = load ptr, ptr %4, align 8, !tbaa !144
  %6 = icmp eq ptr %5, null
  ret i1 %6
}

; Function Attrs: mustprogress nounwind uwtable
define linkonce_odr noundef nonnull align 8 dereferenceable(8) ptr @_ZNSt6vectorIN5Ipopt8SmartPtrINS0_6VectorEEESaIS3_EEixEm(ptr noundef nonnull align 8 dereferenceable(24) %0, i64 noundef %1) #2 comdat align 2 {
  %3 = alloca ptr, align 8
  %4 = alloca i64, align 8
  store ptr %0, ptr %3, align 8, !tbaa !69
  store i64 %1, ptr %4, align 8, !tbaa !71
  %5 = load ptr, ptr %3, align 8
  %6 = getelementptr inbounds nuw %"struct.std::_Vector_base.1", ptr %5, i32 0, i32 0
  %7 = getelementptr inbounds nuw %"struct.std::_Vector_base<Ipopt::SmartPtr<Ipopt::Vector>, std::allocator<Ipopt::SmartPtr<Ipopt::Vector>>>::_Vector_impl_data", ptr %6, i32 0, i32 0
  %8 = load ptr, ptr %7, align 8, !tbaa !83
  %9 = load i64, ptr %4, align 8, !tbaa !71
  %10 = getelementptr inbounds nuw %"class.Ipopt::SmartPtr.15", ptr %8, i64 %9
  ret ptr %10
}

; Function Attrs: inlinehint mustprogress nounwind uwtable
define linkonce_odr noundef i32 @_ZNK5Ipopt14CompoundVector6NCompsEv(ptr noundef nonnull align 8 dereferenceable(265) %0) #4 comdat align 2 {
  %2 = alloca ptr, align 8
  store ptr %0, ptr %2, align 8, !tbaa !3
  %3 = load ptr, ptr %2, align 8
  %4 = getelementptr inbounds nuw %"class.Ipopt::CompoundVector", ptr %3, i32 0, i32 4
  %5 = load ptr, ptr %4, align 8, !tbaa !14
  %6 = call noundef i32 @_ZNK5Ipopt19CompoundVectorSpace11NCompSpacesEv(ptr noundef nonnull align 8 dereferenceable(48) %5)
  ret i32 %6
}

; Function Attrs: mustprogress uwtable
define noundef zeroext i1 @_ZN5Ipopt14CompoundVector12VectorsValidEv(ptr noundef nonnull align 8 dereferenceable(265) %0) #0 align 2 {
  %2 = alloca ptr, align 8
  %3 = alloca i8, align 1
  %4 = alloca i32, align 4
  %5 = alloca i32, align 4
  store ptr %0, ptr %2, align 8, !tbaa !3
  %6 = load ptr, ptr %2, align 8
  call void @llvm.lifetime.start.p0(i64 1, ptr %3) #17
  store i8 1, ptr %3, align 1, !tbaa !10
  call void @llvm.lifetime.start.p0(i64 4, ptr %4) #17
  store i32 0, ptr %4, align 4, !tbaa !43
  br label %7

7:                                                ; preds = %26, %1
  %8 = load i32, ptr %4, align 4, !tbaa !43
  %9 = call noundef i32 @_ZNK5Ipopt14CompoundVector6NCompsEv(ptr noundef nonnull align 8 dereferenceable(265) %6)
  %10 = icmp slt i32 %8, %9
  br i1 %10, label %12, label %11

11:                                               ; preds = %7
  store i32 2, ptr %5, align 4
  br label %29

12:                                               ; preds = %7
  %13 = getelementptr inbounds nuw %"class.Ipopt::CompoundVector", ptr %6, i32 0, i32 2
  %14 = load i32, ptr %4, align 4, !tbaa !43
  %15 = sext i32 %14 to i64
  %16 = call noundef nonnull align 8 dereferenceable(8) ptr @_ZNSt6vectorIN5Ipopt8SmartPtrINS0_6VectorEEESaIS3_EEixEm(ptr noundef nonnull align 8 dereferenceable(24) %13, i64 noundef %15) #17
  %17 = call noundef zeroext i1 @_ZN5Ipopt6IsNullINS_6VectorEEEbRKNS_8SmartPtrIT_EE(ptr noundef nonnull align 8 dereferenceable(8) %16)
  br i1 %17, label %18, label %25

18:                                               ; preds = %12
  %19 = getelementptr inbounds nuw %"class.Ipopt::CompoundVector", ptr %6, i32 0, i32 3
  %20 = load i32, ptr %4, align 4, !tbaa !43
  %21 = sext i32 %20 to i64
  %22 = call noundef nonnull align 8 dereferenceable(8) ptr @_ZNSt6vectorIN5Ipopt8SmartPtrIKNS0_6VectorEEESaIS4_EEixEm(ptr noundef nonnull align 8 dereferenceable(24) %19, i64 noundef %21) #17
  %23 = call noundef zeroext i1 @_ZN5Ipopt6IsNullIKNS_6VectorEEEbRKNS_8SmartPtrIT_EE(ptr noundef nonnull align 8 dereferenceable(8) %22)
  br i1 %23, label %24, label %25

24:                                               ; preds = %18
  store i8 0, ptr %3, align 1, !tbaa !10
  store i32 2, ptr %5, align 4
  br label %29

25:                                               ; preds = %18, %12
  br label %26

26:                                               ; preds = %25
  %27 = load i32, ptr %4, align 4, !tbaa !43
  %28 = add nsw i32 %27, 1
  store i32 %28, ptr %4, align 4, !tbaa !43
  br label %7, !llvm.loop !85

29:                                               ; preds = %24, %11
  call void @llvm.lifetime.end.p0(i64 4, ptr %4) #17
  br label %30

30:                                               ; preds = %29
  %31 = load i8, ptr %3, align 1, !tbaa !10, !range !44, !noundef !45
  %32 = trunc i8 %31 to i1
  store i32 1, ptr %5, align 4
  call void @llvm.lifetime.end.p0(i64 1, ptr %3) #17
  ret i1 %32
}