; Function Attrs: mustprogress nofree norecurse nosync nounwind willreturn memory(read, inaccessiblemem: none) uwtable
define noundef zeroext i1 @_ZN5Ipopt14CompoundVector12VectorsValidEv(ptr noundef nonnull readonly align 8 captures(none) dereferenceable(265) %0) local_unnamed_addr #3 align 2 {
  %2 = getelementptr inbounds nuw i8, ptr %0, i64 256
  %3 = load ptr, ptr %2, align 8, !tbaa !60
  %4 = getelementptr inbounds nuw i8, ptr %3, i64 16
  %5 = load i32, ptr %4, align 8, !tbaa !37
  %6 = icmp slt i32 %5, 1
  br i1 %6, label %._crit_edge, label %.lr.ph

.lr.ph:                                           ; preds = %1
  %7 = getelementptr inbounds nuw i8, ptr %0, i64 232
  %8 = getelementptr inbounds nuw i8, ptr %0, i64 208
  %9 = load ptr, ptr %8, align 8, !tbaa !45
  %10 = load ptr, ptr %7, align 8
  %wide.trip.count = zext nneg i32 %5 to i64
  br label %11

11:                                               ; preds = %.lr.ph, %19
  %indvars.iv = phi i64 [ 0, %.lr.ph ], [ %indvars.iv.next, %19 ]
  %12 = getelementptr inbounds nuw %"class.Ipopt::SmartPtr.15", ptr %9, i64 %indvars.iv
  %13 = load ptr, ptr %12, align 8, !tbaa !48
  %14 = icmp eq ptr %13, null
  br i1 %14, label %15, label %19

15:                                               ; preds = %11
  %16 = getelementptr inbounds nuw %"class.Ipopt::SmartPtr.16", ptr %10, i64 %indvars.iv
  %17 = load ptr, ptr %16, align 8, !tbaa !56
  %18 = icmp eq ptr %17, null
  br i1 %18, label %._crit_edge, label %19

19:                                               ; preds = %11, %15
  %indvars.iv.next = add nuw nsw i64 %indvars.iv, 1
  %exitcond.not = icmp eq i64 %indvars.iv.next, %wide.trip.count
  br i1 %exitcond.not, label %._crit_edge, label %11, !llvm.loop !76

._crit_edge:                                      ; preds = %19, %15, %1
  %.lcssa = phi i1 [ true, %1 ], [ false, %15 ], [ true, %19 ]
  ret i1 %.lcssa
}